target datalayout = "e-m:e-p270:32:32-p271:32:32-p272:64:64-i64:64-i128:128-f80:128-n8:16:32:64-S128"
target triple = "x86_64-pc-linux-gnu"

%"class.OpenColorIO_v2_5dev::CDLTransformImpl" = type { %"class.OpenColorIO_v2_5dev::CDLTransform", %"class.std::__cxx11::basic_string", %"class.OpenColorIO_v2_5dev::CDLOpData" }
%"class.OpenColorIO_v2_5dev::CDLTransform" = type { %"class.OpenColorIO_v2_5dev::Transform" }
%"class.OpenColorIO_v2_5dev::Transform" = type { ptr }
%"class.std::__cxx11::basic_string" = type { %"struct.std::__cxx11::basic_string<char>::_Alloc_hider", i64, %union.anon }
%"struct.std::__cxx11::basic_string<char>::_Alloc_hider" = type { ptr }
%union.anon = type { i64, [8 x i8] }
%"class.OpenColorIO_v2_5dev::CDLOpData" = type { %"class.OpenColorIO_v2_5dev::OpData", i32, %"struct.OpenColorIO_v2_5dev::CDLOpData::ChannelParams", %"struct.OpenColorIO_v2_5dev::CDLOpData::ChannelParams", %"struct.OpenColorIO_v2_5dev::CDLOpData::ChannelParams", double }
%"class.OpenColorIO_v2_5dev::OpData" = type { ptr, %"class.std::mutex", %"class.OpenColorIO_v2_5dev::FormatMetadataImpl" }
%"class.std::mutex" = type { %"class.std::__mutex_base" }
%"class.std::__mutex_base" = type { %union.pthread_mutex_t }
%union.pthread_mutex_t = type { %struct.__pthread_mutex_s }
%struct.__pthread_mutex_s = type { i32, i32, i32, i32, i32, i16, i16, %struct.__pthread_internal_list }
%struct.__pthread_internal_list = type { ptr, ptr }
%"class.OpenColorIO_v2_5dev::FormatMetadataImpl" = type { %"class.OpenColorIO_v2_5dev::FormatMetadata", %"class.std::__cxx11::basic_string", %"class.std::__cxx11::basic_string", %"class.std::vector", %"class.std::vector.3" }
%"class.OpenColorIO_v2_5dev::FormatMetadata" = type { ptr }
%"class.std::vector" = type { %"struct.std::_Vector_base" }
%"struct.std::_Vector_base" = type { %"struct.std::_Vector_base<std::pair<std::__cxx11::basic_string<char>, std::__cxx11::basic_string<char>>, std::allocator<std::pair<std::__cxx11::basic_string<char>, std::__cxx11::basic_string<char>>>>::_Vector_impl" }
%"struct.std::_Vector_base<std::pair<std::__cxx11::basic_string<char>, std::__cxx11::basic_string<char>>, std::allocator<std::pair<std::__cxx11::basic_string<char>, std::__cxx11::basic_string<char>>>>::_Vector_impl" = type { %"struct.std::_Vector_base<std::pair<std::__cxx11::basic_string<char>, std::__cxx11::basic_string<char>>, std::allocator<std::pair<std::__cxx11::basic_string<char>, std::__cxx11::basic_string<char>>>>::_Vector_impl_data" }
%"struct.std::_Vector_base<std::pair<std::__cxx11::basic_string<char>, std::__cxx11::basic_string<char>>, std::allocator<std::pair<std::__cxx11::basic_string<char>, std::__cxx11::basic_string<char>>>>::_Vector_impl_data" = type { ptr, ptr, ptr }
%"class.std::vector.3" = type { %"struct.std::_Vector_base.4" }
%"struct.std::_Vector_base.4" = type { %"struct.std::_Vector_base<OpenColorIO_v2_5dev::FormatMetadataImpl, std::allocator<OpenColorIO_v2_5dev::FormatMetadataImpl>>::_Vector_impl" }
%"struct.std::_Vector_base<OpenColorIO_v2_5dev::FormatMetadataImpl, std::allocator<OpenColorIO_v2_5dev::FormatMetadataImpl>>::_Vector_impl" = type { %"struct.std::_Vector_base<OpenColorIO_v2_5dev::FormatMetadataImpl, std::allocator<OpenColorIO_v2_5dev::FormatMetadataImpl>>::_Vector_impl_data" }
%"struct.std::_Vector_base<OpenColorIO_v2_5dev::FormatMetadataImpl, std::allocator<OpenColorIO_v2_5dev::FormatMetadataImpl>>::_Vector_impl_data" = type { ptr, ptr, ptr }
%"struct.OpenColorIO_v2_5dev::CDLOpData::ChannelParams" = type { [3 x double] }

@_ZTIN19OpenColorIO_v2_5dev9ExceptionE = external constant ptr
@.str.10 = private unnamed_addr constant [39 x i8] c"CDLTransform: Invalid 'offset' pointer\00", align 1
@.str.21 = private unnamed_addr constant [22 x i8] c"Index is out of range\00", align 1

; Function Attrs: mustprogress uwtable
define linkonce_odr hidden noundef double @_ZNK19OpenColorIO_v2_5dev9CDLOpData13ChannelParamsixEj(ptr noundef nonnull align 8 dereferenceable(24) %0, i32 noundef %1) #4 comdat align 2 personality ptr @__gxx_personality_v0 {
  %3 = alloca ptr, align 8
  %4 = alloca i32, align 4
  %5 = alloca ptr, align 8
  %6 = alloca i32, align 4
  store ptr %0, ptr %3, align 8, !tbaa !99
  store i32 %1, ptr %4, align 4, !tbaa !21
  %7 = load ptr, ptr %3, align 8
  %8 = load i32, ptr %4, align 4, !tbaa !21
  %9 = icmp uge i32 %8, 3
  br i1 %9, label %10, label %17

10:                                               ; preds = %2
  %11 = call ptr @__cxa_allocate_exception(i64 16) #3
  invoke void @_ZN19OpenColorIO_v2_5dev9ExceptionC1EPKc(ptr noundef nonnull align 8 dereferenceable(16) %11, ptr noundef @.str.21)
          to label %12 unwind label %13

12:                                               ; preds = %10
  call void @__cxa_throw(ptr %11, ptr @_ZTIN19OpenColorIO_v2_5dev9ExceptionE, ptr @_ZN19OpenColorIO_v2_5dev9ExceptionD1Ev) #24
  unreachable

13:                                               ; preds = %10
  %14 = landingpad { ptr, i32 }
          cleanup
  %15 = extractvalue { ptr, i32 } %14, 0
  store ptr %15, ptr %5, align 8
  %16 = extractvalue { ptr, i32 } %14, 1
  store i32 %16, ptr %6, align 4
  call void @__cxa_free_exception(ptr %11) #3
  br label %23

17:                                               ; preds = %2
  %18 = getelementptr inbounds nuw %"struct.OpenColorIO_v2_5dev::CDLOpData::ChannelParams", ptr %7, i32 0, i32 0
  %19 = load i32, ptr %4, align 4, !tbaa !21
  %20 = zext i32 %19 to i64
  %21 = getelementptr inbounds nuw [3 x double], ptr %18, i64 0, i64 %20
  %22 = load double, ptr %21, align 8, !tbaa !98
  ret double %22

23:                                               ; preds = %13
  %24 = load ptr, ptr %5, align 8
  %25 = load i32, ptr %6, align 4
  %26 = insertvalue { ptr, i32 } poison, ptr %24, 0
  %27 = insertvalue { ptr, i32 } %26, i32 %25, 1
  resume { ptr, i32 } %27
}

; Function Attrs: mustprogress nounwind uwtable
define linkonce_odr hidden noundef nonnull align 8 dereferenceable(24) ptr @_ZNK19OpenColorIO_v2_5dev9CDLOpData15getOffsetParamsEv(ptr noundef nonnull align 8 dereferenceable(256) %0) #8 comdat align 2 {
  %2 = alloca ptr, align 8
  store ptr %0, ptr %2, align 8, !tbaa !63
  %3 = load ptr, ptr %2, align 8
  %4 = getelementptr inbounds nuw %"class.OpenColorIO_v2_5dev::CDLOpData", ptr %3, i32 0, i32 3
  ret ptr %4
}

; Function Attrs: mustprogress nounwind uwtable
define linkonce_odr hidden noundef nonnull align 8 dereferenceable(256) ptr @_ZNK19OpenColorIO_v2_5dev16CDLTransformImpl4dataEv(ptr noundef nonnull align 8 dereferenceable(296) %0) #8 comdat align 2 {
  %2 = alloca ptr, align 8
  store ptr %0, ptr %2, align 8, !tbaa !3
  %3 = load ptr, ptr %2, align 8
  %4 = getelementptr inbounds nuw %"class.OpenColorIO_v2_5dev::CDLTransformImpl", ptr %3, i32 0, i32 2
  ret ptr %4
}

; Function Attrs: mustprogress uwtable
define hidden void @_ZNK19OpenColorIO_v2_5dev16CDLTransformImpl9getOffsetEPd(ptr noundef nonnull align 8 dereferenceable(296) %0, ptr noundef %1) unnamed_addr #4 align 2 personality ptr @__gxx_personality_v0 {
  %3 = alloca ptr, align 8
  %4 = alloca ptr, align 8
  %5 = alloca ptr, align 8
  %6 = alloca i32, align 4
  %7 = alloca ptr, align 8
  store ptr %0, ptr %3, align 8, !tbaa !3
  store ptr %1, ptr %4, align 8, !tbaa !96
  %8 = load ptr, ptr %3, align 8
  %9 = load ptr, ptr %4, align 8, !tbaa !96
  %10 = icmp ne ptr %9, null
  br i1 %10, label %18, label %11

11:                                               ; preds = %2
  %12 = call ptr @__cxa_allocate_exception(i64 16) #3
  invoke void @_ZN19OpenColorIO_v2_5dev9ExceptionC1EPKc(ptr noundef nonnull align 8 dereferenceable(16) %12, ptr noundef @.str.10)
          to label %13 unwind label %14

13:                                               ; preds = %11
  call void @__cxa_throw(ptr %12, ptr @_ZTIN19OpenColorIO_v2_5dev9ExceptionE, ptr @_ZN19OpenColorIO_v2_5dev9ExceptionD1Ev) #24
  unreachable

14:                                               ; preds = %11
  %15 = landingpad { ptr, i32 }
          cleanup
  %16 = extractvalue { ptr, i32 } %15, 0
  store ptr %16, ptr %5, align 8
  %17 = extractvalue { ptr, i32 } %15, 1
  store i32 %17, ptr %6, align 4
  call void @__cxa_free_exception(ptr %12) #3
  br label %33

18:                                               ; preds = %2
  call void @llvm.lifetime.start.p0(i64 8, ptr %7) #3
  %19 = call noundef nonnull align 8 dereferenceable(256) ptr @_ZNK19OpenColorIO_v2_5dev16CDLTransformImpl4dataEv(ptr noundef nonnull align 8 dereferenceable(296) %8) #3
  %20 = call noundef nonnull align 8 dereferenceable(24) ptr @_ZNK19OpenColorIO_v2_5dev9CDLOpData15getOffsetParamsEv(ptr noundef nonnull align 8 dereferenceable(256) %19)
  store ptr %20, ptr %7, align 8, !tbaa !99
  %21 = load ptr, ptr %7, align 8, !tbaa !99
  %22 = call noundef double @_ZNK19OpenColorIO_v2_5dev9CDLOpData13ChannelParamsixEj(ptr noundef nonnull align 8 dereferenceable(24) %21, i32 noundef 0)
  %23 = load ptr, ptr %4, align 8, !tbaa !96
  %24 = getelementptr inbounds double, ptr %23, i64 0
  store double %22, ptr %24, align 8, !tbaa !98
  %25 = load ptr, ptr %7, align 8, !tbaa !99
  %26 = call noundef double @_ZNK19OpenColorIO_v2_5dev9CDLOpData13ChannelParamsixEj(ptr noundef nonnull align 8 dereferenceable(24) %25, i32 noundef 1)
  %27 = load ptr, ptr %4, align 8, !tbaa !96
  %28 = getelementptr inbounds double, ptr %27, i64 1
  store double %26, ptr %28, align 8, !tbaa !98
  %29 = load ptr, ptr %7, align 8, !tbaa !99
  %30 = call noundef double @_ZNK19OpenColorIO_v2_5dev9CDLOpData13ChannelParamsixEj(ptr noundef nonnull align 8 dereferenceable(24) %29, i32 noundef 2)
  %31 = load ptr, ptr %4, align 8, !tbaa !96
  %32 = getelementptr inbounds double, ptr %31, i64 2
  store double %30, ptr %32, align 8, !tbaa !98
  call void @llvm.lifetime.end.p0(i64 8, ptr %7) #3
  ret void

33:                                               ; preds = %14
  %34 = load ptr, ptr %5, align 8
  %35 = load i32, ptr %6, align 4
  %36 = insertvalue { ptr, i32 } poison, ptr %34, 0
  %37 = insertvalue { ptr, i32 } %36, i32 %35, 1
  resume { ptr, i32 } %37
}