; Function Attrs: mustprogress uwtable
define hidden void @_ZNK19OpenColorIO_v2_5dev16CDLTransformImpl9getOffsetEPd(ptr noundef nonnull readonly align 8 captures(none) dereferenceable(296) %0, ptr noundef writeonly %1) unnamed_addr #3 align 2 personality ptr @__gxx_personality_v0 {
  %.not = icmp eq ptr %1, null
  br i1 %.not, label %3, label %8

3:                                                ; preds = %2
  %4 = tail call ptr @__cxa_allocate_exception(i64 16) #26
  invoke void @_ZN19OpenColorIO_v2_5dev9ExceptionC1EPKc(ptr noundef nonnull align 8 dereferenceable(16) %4, ptr noundef nonnull @.str.10)
          to label %5 unwind label %6

5:                                                ; preds = %3
  tail call void @__cxa_throw(ptr nonnull %4, ptr nonnull @_ZTIN19OpenColorIO_v2_5dev9ExceptionE, ptr nonnull @_ZN19OpenColorIO_v2_5dev9ExceptionD1Ev) #27
  unreachable

6:                                                ; preds = %3
  %7 = landingpad { ptr, i32 }
          cleanup
  tail call void @__cxa_free_exception(ptr nonnull %4) #26
  resume { ptr, i32 } %7

8:                                                ; preds = %2
  %9 = getelementptr inbounds nuw i8, ptr %0, i64 240
  %10 = load double, ptr %9, align 8, !tbaa !82
  store double %10, ptr %1, align 8, !tbaa !82
  %11 = getelementptr inbounds nuw i8, ptr %0, i64 248
  %12 = load double, ptr %11, align 8, !tbaa !82
  %13 = getelementptr inbounds nuw i8, ptr %1, i64 8
  store double %12, ptr %13, align 8, !tbaa !82
  %14 = getelementptr inbounds nuw i8, ptr %0, i64 256
  %15 = load double, ptr %14, align 8, !tbaa !82
  %16 = getelementptr inbounds nuw i8, ptr %1, i64 16
  store double %15, ptr %16, align 8, !tbaa !82
  ret void
}